target datalayout = "e-m:e-p270:32:32-p271:32:32-p272:64:64-i64:64-i128:128-f80:128-n8:16:32:64-S128"
target triple = "x86_64-unknown-linux-gnu"

%"struct.llvh::itanium_demangle::Db" = type { ptr, ptr, %"class.llvh::itanium_demangle::PODSmallVector", %"class.llvh::itanium_demangle::PODSmallVector", %"class.llvh::itanium_demangle::PODSmallVector.0", %"class.llvh::itanium_demangle::PODSmallVector.1", ptr, ptr, i8, i8, i8, [13 x i8], %"class.(anonymous namespace)::DefaultAllocator" }
%"class.llvh::itanium_demangle::PODSmallVector" = type { ptr, ptr, ptr, [32 x ptr] }
%"class.llvh::itanium_demangle::PODSmallVector.0" = type { ptr, ptr, ptr, [8 x ptr] }
%"class.llvh::itanium_demangle::PODSmallVector.1" = type { ptr, ptr, ptr, [4 x ptr] }
%"class.(anonymous namespace)::DefaultAllocator" = type { %"class.(anonymous namespace)::BumpPointerAllocator" }
%"class.(anonymous namespace)::BumpPointerAllocator" = type { [4096 x i8], ptr, [8 x i8] }
%"struct.llvh::ItaniumPartialDemangler" = type { ptr, ptr }
%"struct.(anonymous namespace)::BumpPointerAllocator::BlockMeta" = type { ptr, i64 }

; Function Attrs: mustprogress nounwind uwtable
define internal void @_ZN12_GLOBAL__N_120BumpPointerAllocator5resetEv(ptr noundef nonnull align 16 dereferenceable(4104) %this) #0 align 2 {
entry:
  %this.addr = alloca ptr, align 8
  %Tmp = alloca ptr, align 8
  store ptr %this, ptr %this.addr, align 8
  %this1 = load ptr, ptr %this.addr, align 8
  br label %while.cond

while.cond:                                       ; preds = %if.end, %entry
  %BlockList = getelementptr inbounds %"class.(anonymous namespace)::BumpPointerAllocator", ptr %this1, i32 0, i32 1
  %0 = load ptr, ptr %BlockList, align 16
  %tobool = icmp ne ptr %0, null
  br i1 %tobool, label %while.body, label %while.end

while.body:                                       ; preds = %while.cond
  %BlockList2 = getelementptr inbounds %"class.(anonymous namespace)::BumpPointerAllocator", ptr %this1, i32 0, i32 1
  %1 = load ptr, ptr %BlockList2, align 16
  store ptr %1, ptr %Tmp, align 8
  %BlockList3 = getelementptr inbounds %"class.(anonymous namespace)::BumpPointerAllocator", ptr %this1, i32 0, i32 1
  %2 = load ptr, ptr %BlockList3, align 16
  %Next = getelementptr inbounds %"struct.(anonymous namespace)::BumpPointerAllocator::BlockMeta", ptr %2, i32 0, i32 0
  %3 = load ptr, ptr %Next, align 8
  %BlockList4 = getelementptr inbounds %"class.(anonymous namespace)::BumpPointerAllocator", ptr %this1, i32 0, i32 1
  store ptr %3, ptr %BlockList4, align 16
  %4 = load ptr, ptr %Tmp, align 8
  %InitialBuffer = getelementptr inbounds %"class.(anonymous namespace)::BumpPointerAllocator", ptr %this1, i32 0, i32 0
  %arraydecay = getelementptr inbounds [4096 x i8], ptr %InitialBuffer, i64 0, i64 0
  %cmp = icmp ne ptr %4, %arraydecay
  br i1 %cmp, label %if.then, label %if.end

if.then:                                          ; preds = %while.body
  %5 = load ptr, ptr %Tmp, align 8
  call void @free(ptr noundef %5) #13
  br label %if.end

if.end:                                           ; preds = %if.then, %while.body
  br label %while.cond, !llvm.loop !11

while.end:                                        ; preds = %while.cond
  %InitialBuffer5 = getelementptr inbounds %"class.(anonymous namespace)::BumpPointerAllocator", ptr %this1, i32 0, i32 0
  %arraydecay6 = getelementptr inbounds [4096 x i8], ptr %InitialBuffer5, i64 0, i64 0
  %Next7 = getelementptr inbounds %"struct.(anonymous namespace)::BumpPointerAllocator::BlockMeta", ptr %arraydecay6, i32 0, i32 0
  store ptr null, ptr %Next7, align 16
  %Current = getelementptr inbounds %"struct.(anonymous namespace)::BumpPointerAllocator::BlockMeta", ptr %arraydecay6, i32 0, i32 1
  store i64 0, ptr %Current, align 8
  %BlockList8 = getelementptr inbounds %"class.(anonymous namespace)::BumpPointerAllocator", ptr %this1, i32 0, i32 1
  store ptr %arraydecay6, ptr %BlockList8, align 16
  ret void
}

; Function Attrs: mustprogress nounwind uwtable
define internal void @_ZN12_GLOBAL__N_116DefaultAllocator5resetEv(ptr noundef nonnull align 16 dereferenceable(4112) %this) #0 align 2 {
entry:
  %this.addr = alloca ptr, align 8
  store ptr %this, ptr %this.addr, align 8
  %this1 = load ptr, ptr %this.addr, align 8
  %Alloc = getelementptr inbounds %"class.(anonymous namespace)::DefaultAllocator", ptr %this1, i32 0, i32 0
  call void @_ZN12_GLOBAL__N_120BumpPointerAllocator5resetEv(ptr noundef nonnull align 16 dereferenceable(4104) %Alloc)
  ret void
}

; Function Attrs: mustprogress nounwind uwtable
define linkonce_odr hidden void @_ZN4llvh16itanium_demangle14PODSmallVectorIPNS0_4NodeELm8EE5clearEv(ptr noundef nonnull align 8 dereferenceable(88) %this) #0 comdat align 2 {
entry:
  %this.addr = alloca ptr, align 8
  store ptr %this, ptr %this.addr, align 8
  %this1 = load ptr, ptr %this.addr, align 8
  %First = getelementptr inbounds %"class.llvh::itanium_demangle::PODSmallVector.0", ptr %this1, i32 0, i32 0
  %0 = load ptr, ptr %First, align 8
  %Last = getelementptr inbounds %"class.llvh::itanium_demangle::PODSmallVector.0", ptr %this1, i32 0, i32 1
  store ptr %0, ptr %Last, align 8
  ret void
}

; Function Attrs: mustprogress nounwind uwtable
define linkonce_odr hidden void @_ZN4llvh16itanium_demangle14PODSmallVectorIPNS0_4NodeELm32EE5clearEv(ptr noundef nonnull align 8 dereferenceable(280) %this) #0 comdat align 2 {
entry:
  %this.addr = alloca ptr, align 8
  store ptr %this, ptr %this.addr, align 8
  %this1 = load ptr, ptr %this.addr, align 8
  %First = getelementptr inbounds %"class.llvh::itanium_demangle::PODSmallVector", ptr %this1, i32 0, i32 0
  %0 = load ptr, ptr %First, align 8
  %Last = getelementptr inbounds %"class.llvh::itanium_demangle::PODSmallVector", ptr %this1, i32 0, i32 1
  store ptr %0, ptr %Last, align 8
  ret void
}

; Function Attrs: mustprogress nounwind uwtable
define internal void @_ZN4llvh16itanium_demangle2DbIN12_GLOBAL__N_116DefaultAllocatorEE5resetEPKcS6_(ptr noundef nonnull align 16 dereferenceable(4864) %this, ptr noundef %First_, ptr noundef %Last_) #0 align 2 {
entry:
  %this.addr = alloca ptr, align 8
  %First_.addr = alloca ptr, align 8
  %Last_.addr = alloca ptr, align 8
  store ptr %this, ptr %this.addr, align 8
  store ptr %First_, ptr %First_.addr, align 8
  store ptr %Last_, ptr %Last_.addr, align 8
  %this1 = load ptr, ptr %this.addr, align 8
  %0 = load ptr, ptr %First_.addr, align 8
  %First = getelementptr inbounds %"struct.llvh::itanium_demangle::Db", ptr %this1, i32 0, i32 0
  store ptr %0, ptr %First, align 16
  %1 = load ptr, ptr %Last_.addr, align 8
  %Last = getelementptr inbounds %"struct.llvh::itanium_demangle::Db", ptr %this1, i32 0, i32 1
  store ptr %1, ptr %Last, align 8
  %Names = getelementptr inbounds %"struct.llvh::itanium_demangle::Db", ptr %this1, i32 0, i32 2
  call void @_ZN4llvh16itanium_demangle14PODSmallVectorIPNS0_4NodeELm32EE5clearEv(ptr noundef nonnull align 8 dereferenceable(280) %Names)
  %Subs = getelementptr inbounds %"struct.llvh::itanium_demangle::Db", ptr %this1, i32 0, i32 3
  call void @_ZN4llvh16itanium_demangle14PODSmallVectorIPNS0_4NodeELm32EE5clearEv(ptr noundef nonnull align 8 dereferenceable(280) %Subs)
  %TemplateParams = getelementptr inbounds %"struct.llvh::itanium_demangle::Db", ptr %this1, i32 0, i32 4
  call void @_ZN4llvh16itanium_demangle14PODSmallVectorIPNS0_4NodeELm8EE5clearEv(ptr noundef nonnull align 8 dereferenceable(88) %TemplateParams)
  %ParsingLambdaParams = getelementptr inbounds %"struct.llvh::itanium_demangle::Db", ptr %this1, i32 0, i32 10
  store i8 0, ptr %ParsingLambdaParams, align 2
  %TryToParseTemplateArgs = getelementptr inbounds %"struct.llvh::itanium_demangle::Db", ptr %this1, i32 0, i32 8
  store i8 1, ptr %TryToParseTemplateArgs, align 16
  %PermitForwardTemplateReferences = getelementptr inbounds %"struct.llvh::itanium_demangle::Db", ptr %this1, i32 0, i32 9
  store i8 0, ptr %PermitForwardTemplateReferences, align 1
  %ASTAllocator = getelementptr inbounds %"struct.llvh::itanium_demangle::Db", ptr %this1, i32 0, i32 12
  call void @_ZN12_GLOBAL__N_116DefaultAllocator5resetEv(ptr noundef nonnull align 16 dereferenceable(4112) %ASTAllocator)
  ret void
}

; Function Attrs: mustprogress nounwind uwtable
define hidden noundef zeroext i1 @_ZN4llvh23ItaniumPartialDemangler15partialDemangleEPKc(ptr noundef nonnull align 8 dereferenceable(16) %this, ptr noundef %MangledName) #0 align 2 {
entry:
  %this.addr = alloca ptr, align 8
  %MangledName.addr = alloca ptr, align 8
  %Parser = alloca ptr, align 8
  %Len = alloca i64, align 8
  store ptr %this, ptr %this.addr, align 8
  store ptr %MangledName, ptr %MangledName.addr, align 8
  %this1 = load ptr, ptr %this.addr, align 8
  %Context = getelementptr inbounds %"struct.llvh::ItaniumPartialDemangler", ptr %this1, i32 0, i32 1
  %0 = load ptr, ptr %Context, align 8
  store ptr %0, ptr %Parser, align 8
  %1 = load ptr, ptr %MangledName.addr, align 8
  %call = call i64 @strlen(ptr noundef %1) #12
  store i64 %call, ptr %Len, align 8
  %2 = load ptr, ptr %Parser, align 8
  %3 = load ptr, ptr %MangledName.addr, align 8
  %4 = load ptr, ptr %MangledName.addr, align 8
  %5 = load i64, ptr %Len, align 8
  %add.ptr = getelementptr inbounds i8, ptr %4, i64 %5
  call void @_ZN4llvh16itanium_demangle2DbIN12_GLOBAL__N_116DefaultAllocatorEE5resetEPKcS6_(ptr noundef nonnull align 16 dereferenceable(4864) %2, ptr noundef %3, ptr noundef %add.ptr)
  %6 = load ptr, ptr %Parser, align 8
  %call2 = call noundef ptr @_ZN4llvh16itanium_demangle2DbIN12_GLOBAL__N_116DefaultAllocatorEE5parseEv(ptr noundef nonnull align 16 dereferenceable(4864) %6)
  %RootNode = getelementptr inbounds %"struct.llvh::ItaniumPartialDemangler", ptr %this1, i32 0, i32 0
  store ptr %call2, ptr %RootNode, align 8
  %RootNode3 = getelementptr inbounds %"struct.llvh::ItaniumPartialDemangler", ptr %this1, i32 0, i32 0
  %7 = load ptr, ptr %RootNode3, align 8
  %cmp = icmp eq ptr %7, null
  ret i1 %cmp
}