; Function Attrs: mustprogress nounwind uwtable
define hidden noundef zeroext i1 @_ZN4llvh23ItaniumPartialDemangler15partialDemangleEPKc(ptr nocapture noundef nonnull align 8 dereferenceable(16) %this, ptr noundef %MangledName) local_unnamed_addr #1 align 2 {
entry:
  %Context = getelementptr inbounds i8, ptr %this, i64 8
  %0 = load ptr, ptr %Context, align 8
  %call = tail call i64 @strlen(ptr noundef nonnull dereferenceable(1) %MangledName) #18
  %add.ptr = getelementptr inbounds i8, ptr %MangledName, i64 %call
  store ptr %MangledName, ptr %0, align 16
  %Last.i = getelementptr inbounds i8, ptr %0, i64 8
  store ptr %add.ptr, ptr %Last.i, align 8
  %Names.i = getelementptr inbounds i8, ptr %0, i64 16
  %1 = load ptr, ptr %Names.i, align 8
  %Last.i.i = getelementptr inbounds i8, ptr %0, i64 24
  store ptr %1, ptr %Last.i.i, align 8
  %Subs.i = getelementptr inbounds i8, ptr %0, i64 296
  %2 = load ptr, ptr %Subs.i, align 8
  %Last.i1.i = getelementptr inbounds i8, ptr %0, i64 304
  store ptr %2, ptr %Last.i1.i, align 8
  %TemplateParams.i = getelementptr inbounds i8, ptr %0, i64 576
  %3 = load ptr, ptr %TemplateParams.i, align 8
  %Last.i2.i = getelementptr inbounds i8, ptr %0, i64 584
  store ptr %3, ptr %Last.i2.i, align 8
  %ParsingLambdaParams.i = getelementptr inbounds i8, ptr %0, i64 738
  store i8 0, ptr %ParsingLambdaParams.i, align 2
  %TryToParseTemplateArgs.i = getelementptr inbounds i8, ptr %0, i64 736
  store i8 1, ptr %TryToParseTemplateArgs.i, align 16
  %PermitForwardTemplateReferences.i = getelementptr inbounds i8, ptr %0, i64 737
  store i8 0, ptr %PermitForwardTemplateReferences.i, align 1
  %ASTAllocator.i = getelementptr inbounds i8, ptr %0, i64 752
  %BlockList.i.i.i = getelementptr inbounds i8, ptr %0, i64 4848
  %4 = load ptr, ptr %BlockList.i.i.i, align 16
  %tobool.not2.i.i.i = icmp eq ptr %4, null
  br i1 %tobool.not2.i.i.i, label %_ZN4llvh16itanium_demangle2DbIN12_GLOBAL__N_116DefaultAllocatorEE5resetEPKcS6_.exit, label %while.body.i.i.i

while.body.i.i.i:                                 ; preds = %entry, %if.end.i.i.i
  %5 = phi ptr [ %7, %if.end.i.i.i ], [ %4, %entry ]
  %6 = load ptr, ptr %5, align 8
  store ptr %6, ptr %BlockList.i.i.i, align 16
  %cmp.not.i.i.i = icmp eq ptr %5, %ASTAllocator.i
  br i1 %cmp.not.i.i.i, label %if.end.i.i.i, label %if.then.i.i.i

if.then.i.i.i:                                    ; preds = %while.body.i.i.i
  tail call void @free(ptr noundef nonnull %5) #20
  %.pre.i.i.i = load ptr, ptr %BlockList.i.i.i, align 16
  br label %if.end.i.i.i

if.end.i.i.i:                                     ; preds = %if.then.i.i.i, %while.body.i.i.i
  %7 = phi ptr [ %.pre.i.i.i, %if.then.i.i.i ], [ %6, %while.body.i.i.i ]
  %tobool.not.i.i.i = icmp eq ptr %7, null
  br i1 %tobool.not.i.i.i, label %_ZN4llvh16itanium_demangle2DbIN12_GLOBAL__N_116DefaultAllocatorEE5resetEPKcS6_.exit, label %while.body.i.i.i, !llvm.loop !7

_ZN4llvh16itanium_demangle2DbIN12_GLOBAL__N_116DefaultAllocatorEE5resetEPKcS6_.exit: ; preds = %if.end.i.i.i, %entry
  tail call void @llvm.memset.p0.i64(ptr noundef nonnull align 16 dereferenceable(16) %ASTAllocator.i, i8 0, i64 16, i1 false)
  store ptr %ASTAllocator.i, ptr %BlockList.i.i.i, align 16
  %call2 = tail call fastcc noundef ptr @_ZN4llvh16itanium_demangle2DbIN12_GLOBAL__N_116DefaultAllocatorEE5parseEv(ptr noundef nonnull align 16 dereferenceable(4864) %0)
  store ptr %call2, ptr %this, align 8
  %cmp = icmp eq ptr %call2, null
  ret i1 %cmp
}